(dp0
S'storage'
p1
(dp2
sS'users'
p3
(dp4
Vsquid_coin_bot
p5
ccopy_reg
_reconstructor
p6
(c__main__
User
p7
c__builtin__
object
p8
Ntp9
Rp10
(dp11
S'currency'
p12
I0
sS'is_mod'
p13
NsS'name'
p14
g5
sS'is_online'
p15
I00
sS'time'
p16
I0
sbsVdrowsysquid75
p17
g6
(g7
g8
Ntp18
Rp19
(dp20
g12
I0
sg13
I01
sg14
g17
sg15
I00
sg16
I0
sbss.